target datalayout = "e-m:e-p270:32:32-p271:32:32-p272:64:64-i64:64-i128:128-f80:128-n8:16:32:64-S128"
target triple = "x86_64-unknown-linux-gnu"

%struct.PCIDevice = type { %struct.DeviceState, i8, i8, ptr, ptr, ptr, ptr, ptr, i32, %struct.PCIReqIDCache, [64 x i8], [7 x %struct.PCIIORegion], %struct.AddressSpace, %struct.MemoryRegion, %struct.MemoryRegion, ptr, ptr, [3 x ptr], i8, i8, i32, i8, i32, ptr, ptr, ptr, ptr, ptr, ptr, %struct.MemoryRegion, %struct.MemoryRegion, %struct.MemoryRegion, ptr, i8, i32, i8, %struct.PCIExpressDevice, ptr, ptr, i32, i8, %struct.MemoryRegion, i32, ptr, ptr, ptr, ptr, ptr, i32 }
%struct.DeviceState = type { %struct.Object, ptr, ptr, i8, i8, i64, ptr, i32, i8, ptr, %struct.NamedGPIOListHead, %struct.NamedClockListHead, %struct.BusStateHead, i32, i32, i32, %struct.ResettableState, ptr, %struct.MemReentrancyGuard }
%struct.Object = type { ptr, ptr, ptr, i32, ptr }
%struct.NamedGPIOListHead = type { ptr }
%struct.NamedClockListHead = type { ptr }
%struct.BusStateHead = type { ptr }
%struct.ResettableState = type { i32, i8, i8 }
%struct.MemReentrancyGuard = type { i8 }
%struct.PCIReqIDCache = type { ptr, i32 }
%struct.PCIIORegion = type { i64, i64, i8, ptr, ptr }
%struct.AddressSpace = type { %struct.rcu_head, ptr, ptr, ptr, i32, i32, ptr, %union.anon, %union.anon.0 }
%struct.rcu_head = type { ptr, ptr }
%union.anon = type { %struct.QTailQLink }
%struct.QTailQLink = type { ptr, ptr }
%union.anon.0 = type { %struct.QTailQLink }
%struct.PCIExpressDevice = type { i8, i8, i8, i16, %struct.PCIEAERLog, i16, i16, i16, %struct.PCIESriovPF, %struct.PCIESriovVF }
%struct.PCIEAERLog = type { i16, i16, ptr }
%struct.PCIESriovPF = type { i16, [7 x i8], ptr, ptr }
%struct.PCIESriovVF = type { ptr, i16 }
%struct.MemoryRegion = type { %struct.Object, i8, i8, i8, i8, i8, i8, i8, i8, i8, i8, ptr, ptr, ptr, ptr, ptr, ptr, i32, i128, i64, ptr, i64, i8, i8, i8, i8, i8, ptr, i64, i32, %union.anon.1, %union.anon.2, %union.anon.3, ptr, i32, ptr, ptr, i8 }
%union.anon.1 = type { %struct.QTailQLink }
%union.anon.2 = type { %struct.QTailQLink }
%union.anon.3 = type { %struct.QTailQLink }

; Function Attrs: nounwind sspstrong uwtable
define internal ptr @msix_pending_byte(ptr noundef %dev, i32 noundef %vector) #0 {
entry:
  %dev.addr = alloca ptr, align 8
  %vector.addr = alloca i32, align 4
  store ptr %dev, ptr %dev.addr, align 8
  store i32 %vector, ptr %vector.addr, align 4
  %0 = load ptr, ptr %dev.addr, align 8
  %msix_pba = getelementptr inbounds %struct.PCIDevice, ptr %0, i32 0, i32 24
  %1 = load ptr, ptr %msix_pba, align 16
  %2 = load i32, ptr %vector.addr, align 4
  %div = sdiv i32 %2, 8
  %idx.ext = sext i32 %div to i64
  %add.ptr = getelementptr i8, ptr %1, i64 %idx.ext
  ret ptr %add.ptr
}

; Function Attrs: nounwind sspstrong uwtable
define internal zeroext i8 @msix_pending_mask(i32 noundef %vector) #0 {
entry:
  %vector.addr = alloca i32, align 4
  store i32 %vector, ptr %vector.addr, align 4
  %0 = load i32, ptr %vector.addr, align 4
  %rem = srem i32 %0, 8
  %shl = shl i32 1, %rem
  %conv = trunc i32 %shl to i8
  ret i8 %conv
}

; Function Attrs: nounwind sspstrong uwtable
define dso_local void @msix_clr_pending(ptr noundef %dev, i32 noundef %vector) #0 {
entry:
  %dev.addr = alloca ptr, align 8
  %vector.addr = alloca i32, align 4
  store ptr %dev, ptr %dev.addr, align 8
  store i32 %vector, ptr %vector.addr, align 4
  %0 = load i32, ptr %vector.addr, align 4
  %call = call zeroext i8 @msix_pending_mask(i32 noundef %0)
  %conv = zext i8 %call to i32
  %not = xor i32 %conv, -1
  %1 = load ptr, ptr %dev.addr, align 8
  %2 = load i32, ptr %vector.addr, align 4
  %call1 = call ptr @msix_pending_byte(ptr noundef %1, i32 noundef %2)
  %3 = load i8, ptr %call1, align 1
  %conv2 = zext i8 %3 to i32
  %and = and i32 %conv2, %not
  %conv3 = trunc i32 %and to i8
  store i8 %conv3, ptr %call1, align 1
  ret void
}